; Function Attrs: mustprogress nofree norecurse nosync nounwind willreturn memory(read, argmem: readwrite, inaccessiblemem: none) uwtable
define ptr @X509_alias_get0(ptr noundef readonly captures(none) %0, ptr noundef writeonly captures(address_is_null) %1) local_unnamed_addr #4 {
  %3 = getelementptr inbounds nuw i8, ptr %0, i64 336
  %4 = load ptr, ptr %3, align 8, !tbaa !3
  %.not = icmp eq ptr %4, null
  br i1 %.not, label %14, label %5

5:                                                ; preds = %2
  %6 = getelementptr inbounds nuw i8, ptr %4, i64 16
  %7 = load ptr, ptr %6, align 8, !tbaa !35
  %.not10 = icmp eq ptr %7, null
  br i1 %.not10, label %14, label %8

8:                                                ; preds = %5
  %.not11 = icmp eq ptr %1, null
  br i1 %.not11, label %11, label %9

9:                                                ; preds = %8
  %10 = load i32, ptr %7, align 8, !tbaa !40
  store i32 %10, ptr %1, align 4, !tbaa !41
  br label %11

11:                                               ; preds = %9, %8
  %12 = getelementptr inbounds nuw i8, ptr %7, i64 8
  %13 = load ptr, ptr %12, align 8, !tbaa !42
  br label %14

14:                                               ; preds = %2, %5, %11
  %.0 = phi ptr [ %13, %11 ], [ null, %5 ], [ null, %2 ]
  ret ptr %.0
}